target datalayout = "e-m:e-p270:32:32-p271:32:32-p272:64:64-i64:64-i128:128-f80:128-n8:16:32:64-S128"
target triple = "x86_64-pc-linux-gnu"

%struct.tMPI_Thread_key_t = type { %struct.tMPI_Atomic, ptr }
%struct.tMPI_Atomic = type { i32, [60 x i8] }
%struct.tmpi_req_ = type { i32, ptr, ptr, ptr, i32, i32, i64, i32, ptr, ptr }
%struct.tmpi_comm_ = type { %struct.tmpi_group_, %struct.tMPI_Barrier_t, ptr, ptr, i32, ptr, ptr, ptr, ptr, %struct.tMPI_Thread_mutex_t, %struct.tMPI_Thread_cond_t, %struct.tMPI_Thread_cond_t, ptr, ptr, ptr, ptr, ptr, ptr, %struct.tMPI_Atomic }
%struct.tmpi_group_ = type { i32, ptr }
%struct.tMPI_Barrier_t = type { %struct.tMPI_Atomic, i32, %struct.tMPI_Atomic }
%struct.tMPI_Thread_mutex_t = type { %struct.tMPI_Atomic, ptr }
%struct.tMPI_Thread_cond_t = type { %struct.tMPI_Atomic, ptr }

@id_key = external global %struct.tMPI_Thread_key_t, align 8
@TMPI_COMM_WORLD = external global ptr, align 8

; Function Attrs: mustprogress uwtable
define noundef i32 @_Z13tMPI_SendrecvPKviP14tmpi_datatype_iiPviS2_iiP10tmpi_comm_P12tmpi_status_(ptr noundef %0, i32 noundef %1, ptr noundef %2, i32 noundef %3, i32 noundef %4, ptr noundef %5, i32 noundef %6, ptr noundef %7, i32 noundef %8, i32 noundef %9, ptr noundef %10, ptr noundef %11) #0 {
  %13 = alloca i32, align 4
  %14 = alloca ptr, align 8
  %15 = alloca i32, align 4
  %16 = alloca ptr, align 8
  %17 = alloca i32, align 4
  %18 = alloca i32, align 4
  %19 = alloca ptr, align 8
  %20 = alloca i32, align 4
  %21 = alloca ptr, align 8
  %22 = alloca i32, align 4
  %23 = alloca i32, align 4
  %24 = alloca ptr, align 8
  %25 = alloca ptr, align 8
  %26 = alloca ptr, align 8
  %27 = alloca ptr, align 8
  %28 = alloca ptr, align 8
  %29 = alloca %struct.tMPI_Thread_key_t, align 8
  %30 = alloca ptr, align 8
  %31 = alloca ptr, align 8
  %32 = alloca %struct.tmpi_req_, align 8
  %33 = alloca %struct.tmpi_req_, align 8
  %34 = alloca i32, align 4
  store ptr %0, ptr %14, align 8
  store i32 %1, ptr %15, align 4
  store ptr %2, ptr %16, align 8
  store i32 %3, ptr %17, align 4
  store i32 %4, ptr %18, align 4
  store ptr %5, ptr %19, align 8
  store i32 %6, ptr %20, align 4
  store ptr %7, ptr %21, align 8
  store i32 %8, ptr %22, align 4
  store i32 %9, ptr %23, align 4
  store ptr %10, ptr %24, align 8
  store ptr %11, ptr %25, align 8
  call void @llvm.memcpy.p0.p0.i64(ptr align 8 %29, ptr align 8 @id_key, i64 72, i1 false)
  %35 = call noundef ptr @_Z23tMPI_Thread_getspecific17tMPI_Thread_key_t(ptr noundef byval(%struct.tMPI_Thread_key_t) align 8 %29)
  store ptr %35, ptr %28, align 8
  store ptr null, ptr %30, align 8
  store i32 0, ptr %34, align 4
  %36 = load ptr, ptr %24, align 8
  %37 = icmp ne ptr %36, null
  br i1 %37, label %41, label %38

38:                                               ; preds = %12
  %39 = load ptr, ptr @TMPI_COMM_WORLD, align 8
  %40 = call noundef i32 @_Z10tMPI_ErrorP10tmpi_comm_i(ptr noundef %39, i32 noundef 6)
  store i32 %40, ptr %13, align 4
  br label %124

41:                                               ; preds = %12
  %42 = load ptr, ptr %24, align 8
  %43 = getelementptr inbounds %struct.tmpi_comm_, ptr %42, i32 0, i32 0
  %44 = getelementptr inbounds %struct.tmpi_group_, ptr %43, i32 0, i32 1
  %45 = load ptr, ptr %44, align 8
  %46 = load i32, ptr %17, align 4
  %47 = sext i32 %46 to i64
  %48 = getelementptr inbounds ptr, ptr %45, i64 %47
  %49 = load ptr, ptr %48, align 8
  store ptr %49, ptr %31, align 8
  %50 = load ptr, ptr %31, align 8
  %51 = icmp ne ptr %50, null
  br i1 %51, label %55, label %52

52:                                               ; preds = %41
  %53 = load ptr, ptr %24, align 8
  %54 = call noundef i32 @_Z10tMPI_ErrorP10tmpi_comm_i(ptr noundef %53, i32 noundef 15)
  store i32 %54, ptr %13, align 4
  br label %124

55:                                               ; preds = %41
  %56 = load i32, ptr %22, align 4
  %57 = icmp ne i32 %56, -1
  br i1 %57, label %58, label %73

58:                                               ; preds = %55
  %59 = load ptr, ptr %24, align 8
  %60 = getelementptr inbounds %struct.tmpi_comm_, ptr %59, i32 0, i32 0
  %61 = getelementptr inbounds %struct.tmpi_group_, ptr %60, i32 0, i32 1
  %62 = load ptr, ptr %61, align 8
  %63 = load i32, ptr %22, align 4
  %64 = sext i32 %63 to i64
  %65 = getelementptr inbounds ptr, ptr %62, i64 %64
  %66 = load ptr, ptr %65, align 8
  store ptr %66, ptr %30, align 8
  %67 = load ptr, ptr %30, align 8
  %68 = icmp ne ptr %67, null
  br i1 %68, label %72, label %69

69:                                               ; preds = %58
  %70 = load ptr, ptr %24, align 8
  %71 = call noundef i32 @_Z10tMPI_ErrorP10tmpi_comm_i(ptr noundef %70, i32 noundef 16)
  store i32 %71, ptr %13, align 4
  br label %124

72:                                               ; preds = %58
  br label %73

73:                                               ; preds = %72, %55
  %74 = load ptr, ptr %28, align 8
  %75 = load ptr, ptr %24, align 8
  %76 = load ptr, ptr %31, align 8
  %77 = load ptr, ptr %14, align 8
  %78 = load i32, ptr %15, align 4
  %79 = load ptr, ptr %16, align 8
  %80 = load i32, ptr %18, align 4
  %81 = call noundef ptr @_Z14tMPI_Post_sendP11tmpi_threadP10tmpi_comm_S0_PviP14tmpi_datatype_ii(ptr noundef %74, ptr noundef %75, ptr noundef %76, ptr noundef %77, i32 noundef %78, ptr noundef %79, i32 noundef %80, i32 noundef 0)
  store ptr %81, ptr %27, align 8
  %82 = load ptr, ptr %27, align 8
  %83 = icmp eq ptr %82, null
  br i1 %83, label %84, label %85

84:                                               ; preds = %73
  store i32 20, ptr %13, align 4
  br label %124

85:                                               ; preds = %73
  %86 = load ptr, ptr %27, align 8
  call void @_Z13tMPI_Req_initP9tmpi_req_P8envelope(ptr noundef %32, ptr noundef %86)
  %87 = load ptr, ptr %28, align 8
  %88 = load ptr, ptr %24, align 8
  %89 = load ptr, ptr %30, align 8
  %90 = load ptr, ptr %19, align 8
  %91 = load i32, ptr %20, align 4
  %92 = load ptr, ptr %21, align 8
  %93 = load i32, ptr %23, align 4
  %94 = call noundef ptr @_Z20tMPI_Post_match_recvP11tmpi_threadP10tmpi_comm_S0_PviP14tmpi_datatype_ii(ptr noundef %87, ptr noundef %88, ptr noundef %89, ptr noundef %90, i32 noundef %91, ptr noundef %92, i32 noundef %93, i32 noundef 0)
  store ptr %94, ptr %26, align 8
  %95 = load ptr, ptr %26, align 8
  %96 = icmp eq ptr %95, null
  br i1 %96, label %97, label %98

97:                                               ; preds = %85
  store i32 20, ptr %13, align 4
  br label %124

98:                                               ; preds = %85
  %99 = load ptr, ptr %26, align 8
  call void @_Z13tMPI_Req_initP9tmpi_req_P8envelope(ptr noundef %33, ptr noundef %99)
  %100 = getelementptr inbounds %struct.tmpi_req_, ptr %32, i32 0, i32 8
  store ptr %33, ptr %100, align 8
  %101 = getelementptr inbounds %struct.tmpi_req_, ptr %32, i32 0, i32 9
  store ptr null, ptr %101, align 8
  %102 = getelementptr inbounds %struct.tmpi_req_, ptr %33, i32 0, i32 9
  store ptr %32, ptr %102, align 8
  %103 = getelementptr inbounds %struct.tmpi_req_, ptr %33, i32 0, i32 8
  store ptr null, ptr %103, align 8
  br label %104

104:                                              ; preds = %111, %98
  %105 = load ptr, ptr %28, align 8
  %106 = call noundef i32 @_Z15tMPI_Test_multiP11tmpi_threadP9tmpi_req_Pi(ptr noundef %105, ptr noundef %32, ptr noundef null)
  %107 = icmp ne i32 %106, 0
  br i1 %107, label %108, label %109

108:                                              ; preds = %104
  br label %112

109:                                              ; preds = %104
  %110 = load ptr, ptr %28, align 8
  call void @_Z26tMPI_Wait_process_incomingP11tmpi_thread(ptr noundef %110)
  br label %111

111:                                              ; preds = %109
  br i1 true, label %104, label %112, !llvm.loop !4

112:                                              ; preds = %111, %108
  %113 = load ptr, ptr %25, align 8
  call void @_Z15tMPI_Set_statusP9tmpi_req_P12tmpi_status_(ptr noundef %33, ptr noundef %113)
  %114 = getelementptr inbounds %struct.tmpi_req_, ptr %32, i32 0, i32 5
  %115 = load i32, ptr %114, align 4
  store i32 %115, ptr %34, align 4
  %116 = getelementptr inbounds %struct.tmpi_req_, ptr %33, i32 0, i32 5
  %117 = load i32, ptr %116, align 4
  %118 = icmp ne i32 %117, 0
  br i1 %118, label %119, label %122

119:                                              ; preds = %112
  %120 = getelementptr inbounds %struct.tmpi_req_, ptr %33, i32 0, i32 5
  %121 = load i32, ptr %120, align 4
  store i32 %121, ptr %34, align 4
  br label %122

122:                                              ; preds = %119, %112
  %123 = load i32, ptr %34, align 4
  store i32 %123, ptr %13, align 4
  br label %124

124:                                              ; preds = %122, %97, %84, %69, %52, %38
  %125 = load i32, ptr %13, align 4
  ret i32 %125
}