; Function Attrs: mustprogress uwtable
define noundef i32 @_Z13tMPI_SendrecvPKviP14tmpi_datatype_iiPviS2_iiP10tmpi_comm_P12tmpi_status_(ptr noundef %0, i32 noundef %1, ptr noundef %2, i32 noundef %3, i32 noundef %4, ptr noundef %5, i32 noundef %6, ptr noundef %7, i32 noundef %8, i32 noundef %9, ptr noundef %10, ptr noundef %11) local_unnamed_addr #0 {
  %13 = alloca %struct.tmpi_req_, align 8
  %14 = alloca %struct.tmpi_req_, align 8
  %15 = tail call noundef ptr @_Z23tMPI_Thread_getspecific17tMPI_Thread_key_t(ptr noundef nonnull byval(%struct.tMPI_Thread_key_t) align 8 @id_key)
  %.not = icmp eq ptr %10, null
  br i1 %.not, label %16, label %19

16:                                               ; preds = %12
  %17 = load ptr, ptr @TMPI_COMM_WORLD, align 8
  %18 = tail call noundef i32 @_Z10tMPI_ErrorP10tmpi_comm_i(ptr noundef %17, i32 noundef 6)
  br label %51

19:                                               ; preds = %12
  %20 = getelementptr inbounds i8, ptr %10, i64 8
  %21 = load ptr, ptr %20, align 8
  %22 = sext i32 %3 to i64
  %23 = getelementptr inbounds ptr, ptr %21, i64 %22
  %24 = load ptr, ptr %23, align 8
  %.not41 = icmp eq ptr %24, null
  br i1 %.not41, label %25, label %27

25:                                               ; preds = %19
  %26 = tail call noundef i32 @_Z10tMPI_ErrorP10tmpi_comm_i(ptr noundef nonnull %10, i32 noundef 15)
  br label %51

27:                                               ; preds = %19
  %.not42 = icmp eq i32 %8, -1
  br i1 %.not42, label %34, label %28

28:                                               ; preds = %27
  %29 = sext i32 %8 to i64
  %30 = getelementptr inbounds ptr, ptr %21, i64 %29
  %31 = load ptr, ptr %30, align 8
  %.not43 = icmp eq ptr %31, null
  br i1 %.not43, label %32, label %34

32:                                               ; preds = %28
  %33 = tail call noundef i32 @_Z10tMPI_ErrorP10tmpi_comm_i(ptr noundef nonnull %10, i32 noundef 16)
  br label %51

34:                                               ; preds = %28, %27
  %.033 = phi ptr [ %31, %28 ], [ null, %27 ]
  %35 = tail call noundef ptr @_Z14tMPI_Post_sendP11tmpi_threadP10tmpi_comm_S0_PviP14tmpi_datatype_ii(ptr noundef %15, ptr noundef nonnull %10, ptr noundef nonnull %24, ptr noundef %0, i32 noundef %1, ptr noundef %2, i32 noundef %4, i32 noundef 0)
  %36 = icmp eq ptr %35, null
  br i1 %36, label %51, label %37

37:                                               ; preds = %34
  call void @_Z13tMPI_Req_initP9tmpi_req_P8envelope(ptr noundef nonnull %13, ptr noundef nonnull %35)
  %38 = call noundef ptr @_Z20tMPI_Post_match_recvP11tmpi_threadP10tmpi_comm_S0_PviP14tmpi_datatype_ii(ptr noundef %15, ptr noundef nonnull %10, ptr noundef %.033, ptr noundef %5, i32 noundef %6, ptr noundef %7, i32 noundef %9, i32 noundef 0)
  %39 = icmp eq ptr %38, null
  br i1 %39, label %51, label %40

40:                                               ; preds = %37
  call void @_Z13tMPI_Req_initP9tmpi_req_P8envelope(ptr noundef nonnull %14, ptr noundef nonnull %38)
  %41 = getelementptr inbounds i8, ptr %13, i64 56
  store ptr %14, ptr %41, align 8
  %42 = getelementptr inbounds i8, ptr %13, i64 64
  store ptr null, ptr %42, align 8
  %43 = getelementptr inbounds i8, ptr %14, i64 64
  store ptr %13, ptr %43, align 8
  %44 = getelementptr inbounds i8, ptr %14, i64 56
  store ptr null, ptr %44, align 8
  %45 = call noundef i32 @_Z15tMPI_Test_multiP11tmpi_threadP9tmpi_req_Pi(ptr noundef %15, ptr noundef nonnull %13, ptr noundef null)
  %.not4446 = icmp eq i32 %45, 0
  br i1 %.not4446, label %.lr.ph, label %._crit_edge

.lr.ph:                                           ; preds = %40, %.lr.ph
  call void @_Z26tMPI_Wait_process_incomingP11tmpi_thread(ptr noundef %15)
  %46 = call noundef i32 @_Z15tMPI_Test_multiP11tmpi_threadP9tmpi_req_Pi(ptr noundef %15, ptr noundef nonnull %13, ptr noundef null)
  %.not44 = icmp eq i32 %46, 0
  br i1 %.not44, label %.lr.ph, label %._crit_edge, !llvm.loop !4

._crit_edge:                                      ; preds = %.lr.ph, %40
  call void @_Z15tMPI_Set_statusP9tmpi_req_P12tmpi_status_(ptr noundef nonnull %14, ptr noundef %11)
  %47 = getelementptr inbounds i8, ptr %13, i64 36
  %48 = load i32, ptr %47, align 4
  %49 = getelementptr inbounds i8, ptr %14, i64 36
  %50 = load i32, ptr %49, align 4
  %.not45 = icmp eq i32 %50, 0
  %spec.select = select i1 %.not45, i32 %48, i32 %50
  br label %51

51:                                               ; preds = %37, %34, %._crit_edge, %32, %25, %16
  %.032 = phi i32 [ %spec.select, %._crit_edge ], [ %33, %32 ], [ %26, %25 ], [ %18, %16 ], [ 20, %34 ], [ 20, %37 ]
  ret i32 %.032
}